target datalayout = "e-m:e-p270:32:32-p271:32:32-p272:64:64-i64:64-i128:128-f80:128-n8:16:32:64-S128"
target triple = "x86_64-pc-linux-gnu"

%"class.std::__cxx11::basic_string" = type { %"struct.std::__cxx11::basic_string<char>::_Alloc_hider", i64, %union.anon }
%"struct.std::__cxx11::basic_string<char>::_Alloc_hider" = type { ptr }
%union.anon = type { i64, [8 x i8] }
%"class.std::allocator" = type { i8 }
%"class.cv::Mat" = type { i32, i32, i32, i32, ptr, ptr, ptr, ptr, ptr, ptr, %"struct.cv::MatSize", %"struct.cv::MatStep" }
%"struct.cv::MatSize" = type { ptr }
%"struct.cv::MatStep" = type { ptr, [2 x i64] }
%"class.cv::NAryMatIterator" = type { ptr, ptr, ptr, i32, i64, i64, i32, i64 }

@.str.31 = private unnamed_addr constant [118 x i8] c"generated/home/dtcxzyw/WorkSpace/Projects/compilers/llvm-opt-benchmark/bench/opencv/opencv/modules/ts/src/ts_func.cpp\00", align 1
@.str.39 = private unnamed_addr constant [33 x i8] c"0 <= coi && coi < src.channels()\00", align 1
@__func__._ZN6cvtest7extractERKN2cv3MatERS1_i = private unnamed_addr constant [8 x i8] c"extract\00", align 1

; Function Attrs: mustprogress nounwind uwtable
define linkonce_odr hidden noundef ptr @_ZN2cv3Mat3ptrEi(ptr noundef nonnull align 8 dereferenceable(96) %0, i32 noundef %1) #4 comdat align 2 {
  %3 = alloca ptr, align 8
  %4 = alloca i32, align 4
  store ptr %0, ptr %3, align 8
  store i32 %1, ptr %4, align 4
  %5 = load ptr, ptr %3, align 8
  %6 = getelementptr inbounds %"class.cv::Mat", ptr %5, i32 0, i32 4
  %7 = load ptr, ptr %6, align 8
  %8 = getelementptr inbounds %"class.cv::Mat", ptr %5, i32 0, i32 11
  %9 = getelementptr inbounds %"struct.cv::MatStep", ptr %8, i32 0, i32 0
  %10 = load ptr, ptr %9, align 8
  %11 = getelementptr inbounds i64, ptr %10, i64 0
  %12 = load i64, ptr %11, align 8
  %13 = load i32, ptr %4, align 4
  %14 = sext i32 %13 to i64
  %15 = mul i64 %12, %14
  %16 = getelementptr inbounds i8, ptr %7, i64 %15
  ret ptr %16
}

; Function Attrs: mustprogress nounwind uwtable
define linkonce_odr hidden noundef i64 @_ZNK2cv3Mat8elemSizeEv(ptr noundef nonnull align 8 dereferenceable(96) %0) #4 comdat align 2 {
  %2 = alloca ptr, align 8
  %3 = alloca i64, align 8
  store ptr %0, ptr %2, align 8
  %4 = load ptr, ptr %2, align 8
  %5 = getelementptr inbounds %"class.cv::Mat", ptr %4, i32 0, i32 1
  %6 = load i32, ptr %5, align 4
  %7 = icmp sgt i32 %6, 0
  br i1 %7, label %8, label %18

8:                                                ; preds = %1
  %9 = getelementptr inbounds %"class.cv::Mat", ptr %4, i32 0, i32 11
  %10 = getelementptr inbounds %"struct.cv::MatStep", ptr %9, i32 0, i32 0
  %11 = load ptr, ptr %10, align 8
  %12 = getelementptr inbounds %"class.cv::Mat", ptr %4, i32 0, i32 1
  %13 = load i32, ptr %12, align 4
  %14 = sub nsw i32 %13, 1
  %15 = sext i32 %14 to i64
  %16 = getelementptr inbounds i64, ptr %11, i64 %15
  %17 = load i64, ptr %16, align 8
  br label %19

18:                                               ; preds = %1
  br label %19

19:                                               ; preds = %18, %8
  %20 = phi i64 [ %17, %8 ], [ 0, %18 ]
  store i64 %20, ptr %3, align 8
  %21 = load i64, ptr %3, align 8
  ret i64 %21
}

; Function Attrs: mustprogress nounwind uwtable
define linkonce_odr hidden noundef i32 @_ZNK2cv3Mat8channelsEv(ptr noundef nonnull align 8 dereferenceable(96) %0) #4 comdat align 2 {
  %2 = alloca ptr, align 8
  store ptr %0, ptr %2, align 8
  %3 = load ptr, ptr %2, align 8
  %4 = getelementptr inbounds %"class.cv::Mat", ptr %3, i32 0, i32 0
  %5 = load i32, ptr %4, align 8
  %6 = and i32 %5, 4088
  %7 = ashr i32 %6, 3
  %8 = add nsw i32 %7, 1
  ret i32 %8
}

; Function Attrs: mustprogress nounwind uwtable
define linkonce_odr hidden noundef i32 @_ZNK2cv3Mat5depthEv(ptr noundef nonnull align 8 dereferenceable(96) %0) #4 comdat align 2 {
  %2 = alloca ptr, align 8
  store ptr %0, ptr %2, align 8
  %3 = load ptr, ptr %2, align 8
  %4 = getelementptr inbounds %"class.cv::Mat", ptr %3, i32 0, i32 0
  %5 = load i32, ptr %4, align 8
  %6 = and i32 %5, 7
  ret i32 %6
}

; Function Attrs: mustprogress nounwind uwtable
define linkonce_odr hidden noundef nonnull align 4 dereferenceable(4) ptr @_ZNK2cv7MatSizeixEi(ptr noundef nonnull align 8 dereferenceable(8) %0, i32 noundef %1) #4 comdat align 2 {
  %3 = alloca ptr, align 8
  %4 = alloca i32, align 4
  store ptr %0, ptr %3, align 8
  store i32 %1, ptr %4, align 4
  %5 = load ptr, ptr %3, align 8
  %6 = getelementptr inbounds %"struct.cv::MatSize", ptr %5, i32 0, i32 0
  %7 = load ptr, ptr %6, align 8
  %8 = load i32, ptr %4, align 4
  %9 = sext i32 %8 to i64
  %10 = getelementptr inbounds i32, ptr %7, i64 %9
  ret ptr %10
}

; Function Attrs: mustprogress uwtable
define hidden void @_ZN6cvtest7extractERKN2cv3MatERS1_i(ptr noundef nonnull align 8 dereferenceable(96) %0, ptr noundef nonnull align 8 dereferenceable(96) %1, i32 noundef %2) #6 personality ptr @__gxx_personality_v0 {
  %4 = alloca ptr, align 8
  %5 = alloca ptr, align 8
  %6 = alloca i32, align 4
  %7 = alloca %"class.std::__cxx11::basic_string", align 8
  %8 = alloca %"class.std::allocator", align 1
  %9 = alloca ptr, align 8
  %10 = alloca i32, align 4
  %11 = alloca [3 x ptr], align 16
  %12 = alloca [2 x %"class.cv::Mat"], align 16
  %13 = alloca %"class.cv::NAryMatIterator", align 8
  %14 = alloca i64, align 8
  %15 = alloca i64, align 8
  %16 = alloca i64, align 8
  %17 = alloca i64, align 8
  %18 = alloca i64, align 8
  %19 = alloca i64, align 8
  %20 = alloca i64, align 8
  %21 = alloca ptr, align 8
  %22 = alloca ptr, align 8
  store ptr %0, ptr %4, align 8
  store ptr %1, ptr %5, align 8
  store i32 %2, ptr %6, align 4
  %23 = load ptr, ptr %5, align 8
  %24 = load ptr, ptr %4, align 8
  %25 = getelementptr inbounds %"class.cv::Mat", ptr %24, i32 0, i32 1
  %26 = load i32, ptr %25, align 4
  %27 = load ptr, ptr %4, align 8
  %28 = getelementptr inbounds %"class.cv::Mat", ptr %27, i32 0, i32 10
  %29 = call noundef nonnull align 4 dereferenceable(4) ptr @_ZNK2cv7MatSizeixEi(ptr noundef nonnull align 8 dereferenceable(8) %28, i32 noundef 0)
  %30 = load ptr, ptr %4, align 8
  %31 = call noundef i32 @_ZNK2cv3Mat5depthEv(ptr noundef nonnull align 8 dereferenceable(96) %30)
  call void @_ZN2cv3Mat6createEiPKii(ptr noundef nonnull align 8 dereferenceable(96) %23, i32 noundef %26, ptr noundef %29, i32 noundef %31)
  br label %32

32:                                               ; preds = %3
  %33 = load i32, ptr %6, align 4
  %34 = icmp sle i32 0, %33
  br i1 %34, label %35, label %41

35:                                               ; preds = %32
  %36 = load i32, ptr %6, align 4
  %37 = load ptr, ptr %4, align 8
  %38 = call noundef i32 @_ZNK2cv3Mat8channelsEv(ptr noundef nonnull align 8 dereferenceable(96) %37)
  %39 = icmp slt i32 %36, %38
  br i1 %39, label %40, label %41

40:                                               ; preds = %35
  br label %53

41:                                               ; preds = %35, %32
  call void @_ZNSaIcEC1Ev(ptr noundef nonnull align 1 dereferenceable(1) %8) #3
  invoke void @_ZNSt7__cxx1112basic_stringIcSt11char_traitsIcESaIcEEC1EPKcRKS3_(ptr noundef nonnull align 8 dereferenceable(32) %7, ptr noundef @.str.39, ptr noundef nonnull align 1 dereferenceable(1) %8)
          to label %42 unwind label %44

42:                                               ; preds = %41
  invoke void @_ZN2cv5errorEiRKNSt7__cxx1112basic_stringIcSt11char_traitsIcESaIcEEEPKcS9_i(i32 noundef -215, ptr noundef nonnull align 8 dereferenceable(32) %7, ptr noundef @__func__._ZN6cvtest7extractERKN2cv3MatERS1_i, ptr noundef @.str.31, i32 noundef 493) #18
          to label %43 unwind label %48

43:                                               ; preds = %42
  unreachable

44:                                               ; preds = %41
  %45 = landingpad { ptr, i32 }
          cleanup
  %46 = extractvalue { ptr, i32 } %45, 0
  store ptr %46, ptr %9, align 8
  %47 = extractvalue { ptr, i32 } %45, 1
  store i32 %47, ptr %10, align 4
  br label %52

48:                                               ; preds = %42
  %49 = landingpad { ptr, i32 }
          cleanup
  %50 = extractvalue { ptr, i32 } %49, 0
  store ptr %50, ptr %9, align 8
  %51 = extractvalue { ptr, i32 } %49, 1
  store i32 %51, ptr %10, align 4
  call void @_ZNSt7__cxx1112basic_stringIcSt11char_traitsIcESaIcEED1Ev(ptr noundef nonnull align 8 dereferenceable(32) %7) #3
  br label %52

52:                                               ; preds = %48, %44
  call void @_ZNSaIcED1Ev(ptr noundef nonnull align 1 dereferenceable(1) %8) #3
  br label %151

53:                                               ; preds = %40
  br label %54

54:                                               ; preds = %53
  %55 = load ptr, ptr %4, align 8
  store ptr %55, ptr %11, align 8
  %56 = getelementptr inbounds ptr, ptr %11, i64 1
  %57 = load ptr, ptr %5, align 8
  store ptr %57, ptr %56, align 8
  %58 = getelementptr inbounds ptr, ptr %11, i64 2
  store ptr null, ptr %58, align 8
  %59 = getelementptr inbounds [2 x %"class.cv::Mat"], ptr %12, i32 0, i32 0
  %60 = getelementptr inbounds %"class.cv::Mat", ptr %59, i64 2
  br label %61

61:                                               ; preds = %61, %54
  %62 = phi ptr [ %59, %54 ], [ %63, %61 ]
  call void @_ZN2cv3MatC1Ev(ptr noundef nonnull align 8 dereferenceable(96) %62) #3
  %63 = getelementptr inbounds %"class.cv::Mat", ptr %62, i64 1
  %64 = icmp eq ptr %63, %60
  br i1 %64, label %65, label %61

65:                                               ; preds = %61
  %66 = getelementptr inbounds [3 x ptr], ptr %11, i64 0, i64 0
  %67 = getelementptr inbounds [2 x %"class.cv::Mat"], ptr %12, i64 0, i64 0
  invoke void @_ZN2cv15NAryMatIteratorC1EPPKNS_3MatEPS1_i(ptr noundef nonnull align 8 dereferenceable(64) %13, ptr noundef %66, ptr noundef %67, i32 noundef -1)
          to label %68 unwind label %116

68:                                               ; preds = %65
  %69 = getelementptr inbounds %"class.cv::NAryMatIterator", ptr %13, i32 0, i32 4
  %70 = load i64, ptr %69, align 8
  store i64 %70, ptr %15, align 8
  %71 = load ptr, ptr %4, align 8
  %72 = invoke noundef i64 @_ZNK2cv3Mat8elemSizeEv(ptr noundef nonnull align 8 dereferenceable(96) %71)
          to label %73 unwind label %116

73:                                               ; preds = %68
  store i64 %72, ptr %18, align 8
  %74 = load ptr, ptr %5, align 8
  %75 = invoke noundef i64 @_ZNK2cv3Mat8elemSizeEv(ptr noundef nonnull align 8 dereferenceable(96) %74)
          to label %76 unwind label %116

76:                                               ; preds = %73
  store i64 %75, ptr %19, align 8
  %77 = getelementptr inbounds [2 x %"class.cv::Mat"], ptr %12, i64 0, i64 0
  %78 = invoke noundef i64 @_ZNK2cv3Mat5totalEv(ptr noundef nonnull align 8 dereferenceable(96) %77)
          to label %79 unwind label %116

79:                                               ; preds = %76
  store i64 %78, ptr %20, align 8
  store i64 0, ptr %14, align 8
  br label %80

80:                                               ; preds = %137, %79
  %81 = load i64, ptr %14, align 8
  %82 = load i64, ptr %15, align 8
  %83 = icmp ult i64 %81, %82
  br i1 %83, label %84, label %138

84:                                               ; preds = %80
  %85 = getelementptr inbounds [2 x %"class.cv::Mat"], ptr %12, i64 0, i64 0
  %86 = invoke noundef ptr @_ZN2cv3Mat3ptrEi(ptr noundef nonnull align 8 dereferenceable(96) %85, i32 noundef 0)
          to label %87 unwind label %116

87:                                               ; preds = %84
  %88 = load i32, ptr %6, align 4
  %89 = sext i32 %88 to i64
  %90 = load i64, ptr %19, align 8
  %91 = mul i64 %89, %90
  %92 = getelementptr inbounds i8, ptr %86, i64 %91
  store ptr %92, ptr %21, align 8
  %93 = getelementptr inbounds [2 x %"class.cv::Mat"], ptr %12, i64 0, i64 1
  %94 = invoke noundef ptr @_ZN2cv3Mat3ptrEi(ptr noundef nonnull align 8 dereferenceable(96) %93, i32 noundef 0)
          to label %95 unwind label %116

95:                                               ; preds = %87
  store ptr %94, ptr %22, align 8
  store i64 0, ptr %16, align 8
  br label %96

96:                                               ; preds = %123, %95
  %97 = load i64, ptr %16, align 8
  %98 = load i64, ptr %20, align 8
  %99 = icmp ult i64 %97, %98
  br i1 %99, label %100, label %132

100:                                              ; preds = %96
  store i64 0, ptr %17, align 8
  br label %101

101:                                              ; preds = %113, %100
  %102 = load i64, ptr %17, align 8
  %103 = load i64, ptr %19, align 8
  %104 = icmp ult i64 %102, %103
  br i1 %104, label %105, label %122

105:                                              ; preds = %101
  %106 = load ptr, ptr %21, align 8
  %107 = load i64, ptr %17, align 8
  %108 = getelementptr inbounds i8, ptr %106, i64 %107
  %109 = load i8, ptr %108, align 1
  %110 = load ptr, ptr %22, align 8
  %111 = load i64, ptr %17, align 8
  %112 = getelementptr inbounds i8, ptr %110, i64 %111
  store i8 %109, ptr %112, align 1
  br label %113

113:                                              ; preds = %105
  %114 = load i64, ptr %17, align 8
  %115 = add i64 %114, 1
  store i64 %115, ptr %17, align 8
  br label %101, !llvm.loop !35

116:                                              ; preds = %133, %87, %84, %76, %73, %68, %65
  %117 = landingpad { ptr, i32 }
          cleanup
  %118 = extractvalue { ptr, i32 } %117, 0
  store ptr %118, ptr %9, align 8
  %119 = extractvalue { ptr, i32 } %117, 1
  store i32 %119, ptr %10, align 4
  %120 = getelementptr inbounds [2 x %"class.cv::Mat"], ptr %12, i32 0, i32 0
  %121 = getelementptr inbounds %"class.cv::Mat", ptr %120, i64 2
  br label %146

122:                                              ; preds = %101
  br label %123

123:                                              ; preds = %122
  %124 = load i64, ptr %16, align 8
  %125 = add i64 %124, 1
  store i64 %125, ptr %16, align 8
  %126 = load i64, ptr %18, align 8
  %127 = load ptr, ptr %21, align 8
  %128 = getelementptr inbounds i8, ptr %127, i64 %126
  store ptr %128, ptr %21, align 8
  %129 = load i64, ptr %19, align 8
  %130 = load ptr, ptr %22, align 8
  %131 = getelementptr inbounds i8, ptr %130, i64 %129
  store ptr %131, ptr %22, align 8
  br label %96, !llvm.loop !36

132:                                              ; preds = %96
  br label %133

133:                                              ; preds = %132
  %134 = load i64, ptr %14, align 8
  %135 = add i64 %134, 1
  store i64 %135, ptr %14, align 8
  %136 = invoke noundef nonnull align 8 dereferenceable(64) ptr @_ZN2cv15NAryMatIteratorppEv(ptr noundef nonnull align 8 dereferenceable(64) %13)
          to label %137 unwind label %116

137:                                              ; preds = %133
  br label %80, !llvm.loop !37

138:                                              ; preds = %80
  %139 = getelementptr inbounds [2 x %"class.cv::Mat"], ptr %12, i32 0, i32 0
  %140 = getelementptr inbounds %"class.cv::Mat", ptr %139, i64 2
  br label %141

141:                                              ; preds = %141, %138
  %142 = phi ptr [ %140, %138 ], [ %143, %141 ]
  %143 = getelementptr inbounds %"class.cv::Mat", ptr %142, i64 -1
  call void @_ZN2cv3MatD1Ev(ptr noundef nonnull align 8 dereferenceable(96) %143) #3
  %144 = icmp eq ptr %143, %139
  br i1 %144, label %145, label %141

145:                                              ; preds = %141
  ret void

146:                                              ; preds = %146, %116
  %147 = phi ptr [ %121, %116 ], [ %148, %146 ]
  %148 = getelementptr inbounds %"class.cv::Mat", ptr %147, i64 -1
  call void @_ZN2cv3MatD1Ev(ptr noundef nonnull align 8 dereferenceable(96) %148) #3
  %149 = icmp eq ptr %148, %120
  br i1 %149, label %150, label %146

150:                                              ; preds = %146
  br label %151

151:                                              ; preds = %150, %52
  %152 = load ptr, ptr %9, align 8
  %153 = load i32, ptr %10, align 4
  %154 = insertvalue { ptr, i32 } poison, ptr %152, 0
  %155 = insertvalue { ptr, i32 } %154, i32 %153, 1
  resume { ptr, i32 } %155
}