; Function Attrs: mustprogress uwtable
define hidden void @_ZN6cvtest7extractERKN2cv3MatERS1_i(ptr noundef nonnull align 8 dereferenceable(96) %0, ptr noundef nonnull align 8 dereferenceable(96) %1, i32 noundef %2) local_unnamed_addr #6 personality ptr @__gxx_personality_v0 {
  %4 = alloca %"class.std::__cxx11::basic_string", align 8
  %5 = alloca %"class.std::allocator", align 1
  %6 = alloca [3 x ptr], align 16
  %7 = alloca [2 x %"class.cv::Mat"], align 16
  %8 = alloca %"class.cv::NAryMatIterator", align 8
  %9 = getelementptr inbounds i8, ptr %0, i64 4
  %10 = load i32, ptr %9, align 4
  %11 = getelementptr inbounds i8, ptr %0, i64 64
  %12 = load ptr, ptr %11, align 8
  %13 = load i32, ptr %0, align 8
  %14 = and i32 %13, 7
  tail call void @_ZN2cv3Mat6createEiPKii(ptr noundef nonnull align 8 dereferenceable(96) %1, i32 noundef %10, ptr noundef nonnull %12, i32 noundef %14)
  %15 = icmp sgt i32 %2, -1
  br i1 %15, label %16, label %20

16:                                               ; preds = %3
  %17 = load i32, ptr %0, align 8
  %18 = lshr i32 %17, 3
  %19 = and i32 %18, 511
  %.not = icmp ult i32 %19, %2
  br i1 %.not, label %20, label %28

20:                                               ; preds = %16, %3
  call void @_ZNSaIcEC1Ev(ptr noundef nonnull align 1 dereferenceable(1) %5) #28
  invoke void @_ZNSt7__cxx1112basic_stringIcSt11char_traitsIcESaIcEEC1EPKcRKS3_(ptr noundef nonnull align 8 dereferenceable(32) %4, ptr noundef nonnull @.str.39, ptr noundef nonnull align 1 dereferenceable(1) %5)
          to label %21 unwind label %23

21:                                               ; preds = %20
  invoke void @_ZN2cv5errorEiRKNSt7__cxx1112basic_stringIcSt11char_traitsIcESaIcEEEPKcS9_i(i32 noundef -215, ptr noundef nonnull align 8 dereferenceable(32) %4, ptr noundef nonnull @__func__._ZN6cvtest7extractERKN2cv3MatERS1_i, ptr noundef nonnull @.str.31, i32 noundef 493) #29
          to label %22 unwind label %25

22:                                               ; preds = %21
  unreachable

23:                                               ; preds = %20
  %24 = landingpad { ptr, i32 }
          cleanup
  br label %27

25:                                               ; preds = %21
  %26 = landingpad { ptr, i32 }
          cleanup
  call void @_ZNSt7__cxx1112basic_stringIcSt11char_traitsIcESaIcEED1Ev(ptr noundef nonnull align 8 dereferenceable(32) %4) #28
  br label %27

27:                                               ; preds = %25, %23
  %.pn = phi { ptr, i32 } [ %26, %25 ], [ %24, %23 ]
  call void @_ZNSaIcED1Ev(ptr noundef nonnull align 1 dereferenceable(1) %5) #28
  br label %.loopexit

28:                                               ; preds = %16
  store ptr %0, ptr %6, align 16
  %29 = getelementptr inbounds i8, ptr %6, i64 8
  store ptr %1, ptr %29, align 8
  %30 = getelementptr inbounds i8, ptr %6, i64 16
  store ptr null, ptr %30, align 16
  br label %31

31:                                               ; preds = %31, %28
  %.idx = phi i64 [ 0, %28 ], [ %.add, %31 ]
  %.ptr = getelementptr inbounds i8, ptr %7, i64 %.idx
  call void @_ZN2cv3MatC1Ev(ptr noundef nonnull align 8 dereferenceable(96) %.ptr) #28
  %.add = add nuw nsw i64 %.idx, 96
  %32 = icmp eq i64 %.add, 192
  br i1 %32, label %33, label %31

33:                                               ; preds = %31
  %34 = getelementptr inbounds i8, ptr %7, i64 192
  invoke void @_ZN2cv15NAryMatIteratorC1EPPKNS_3MatEPS1_i(ptr noundef nonnull align 8 dereferenceable(64) %8, ptr noundef nonnull %6, ptr noundef nonnull %7, i32 noundef -1)
          to label %35 unwind label %.loopexit.split-lp

35:                                               ; preds = %33
  %36 = getelementptr inbounds i8, ptr %8, i64 32
  %37 = load i64, ptr %36, align 8
  %38 = load i32, ptr %9, align 4
  %39 = icmp sgt i32 %38, 0
  br i1 %39, label %40, label %_ZNK2cv3Mat8elemSizeEv.exit

40:                                               ; preds = %35
  %41 = getelementptr inbounds i8, ptr %0, i64 72
  %42 = load ptr, ptr %41, align 8
  %43 = zext nneg i32 %38 to i64
  %44 = getelementptr i64, ptr %42, i64 %43
  %45 = getelementptr i8, ptr %44, i64 -8
  %46 = load i64, ptr %45, align 8
  br label %_ZNK2cv3Mat8elemSizeEv.exit

_ZNK2cv3Mat8elemSizeEv.exit:                      ; preds = %35, %40
  %47 = phi i64 [ %46, %40 ], [ 0, %35 ]
  %48 = getelementptr inbounds i8, ptr %1, i64 4
  %49 = load i32, ptr %48, align 4
  %50 = icmp sgt i32 %49, 0
  br i1 %50, label %51, label %_ZNK2cv3Mat8elemSizeEv.exit45

51:                                               ; preds = %_ZNK2cv3Mat8elemSizeEv.exit
  %52 = getelementptr inbounds i8, ptr %1, i64 72
  %53 = load ptr, ptr %52, align 8
  %54 = zext nneg i32 %49 to i64
  %55 = getelementptr i64, ptr %53, i64 %54
  %56 = getelementptr i8, ptr %55, i64 -8
  %57 = load i64, ptr %56, align 8
  %58 = freeze i64 %57
  br label %_ZNK2cv3Mat8elemSizeEv.exit45

_ZNK2cv3Mat8elemSizeEv.exit45:                    ; preds = %_ZNK2cv3Mat8elemSizeEv.exit, %51
  %.fr62 = phi i64 [ %58, %51 ], [ 0, %_ZNK2cv3Mat8elemSizeEv.exit ]
  %59 = invoke noundef i64 @_ZNK2cv3Mat5totalEv(ptr noundef nonnull align 8 dereferenceable(96) %7)
          to label %.preheader47 unwind label %.loopexit.split-lp

.preheader47:                                     ; preds = %_ZNK2cv3Mat8elemSizeEv.exit45
  %60 = getelementptr inbounds i8, ptr %7, i64 16
  %61 = zext nneg i32 %2 to i64
  %62 = mul i64 %.fr62, %61
  %63 = getelementptr inbounds i8, ptr %7, i64 112
  %.not61 = icmp eq i64 %59, 0
  br i1 %.not61, label %.preheader47.split, label %.preheader47.split.us

.preheader47.split.us:                            ; preds = %.preheader47
  %.not63 = icmp eq i64 %.fr62, 0
  br i1 %.not63, label %.preheader47.split.us.split, label %.preheader47.split.us.split.us

.preheader47.split.us.split.us:                   ; preds = %.preheader47.split.us, %._crit_edge53.split.us.us.us
  %.035.us.us = phi i64 [ %75, %._crit_edge53.split.us.us.us ], [ 0, %.preheader47.split.us ]
  %exitcond67.not = icmp eq i64 %.035.us.us, %37
  br i1 %exitcond67.not, label %.preheader.preheader, label %.preheader46.lr.ph.us.us

.preheader46.lr.ph.us.us:                         ; preds = %.preheader47.split.us.split.us
  %64 = load ptr, ptr %60, align 16
  %65 = getelementptr inbounds i8, ptr %64, i64 %62
  %66 = load ptr, ptr %63, align 16
  br label %.preheader46.us.us.us

.preheader46.us.us.us:                            ; preds = %._crit_edge.us.us.us, %.preheader46.lr.ph.us.us
  %.052.us.us.us = phi ptr [ %66, %.preheader46.lr.ph.us.us ], [ %74, %._crit_edge.us.us.us ]
  %.03151.us.us.us = phi ptr [ %65, %.preheader46.lr.ph.us.us ], [ %73, %._crit_edge.us.us.us ]
  %.03750.us.us.us = phi i64 [ 0, %.preheader46.lr.ph.us.us ], [ %72, %._crit_edge.us.us.us ]
  br label %67

67:                                               ; preds = %67, %.preheader46.us.us.us
  %.03649.us.us.us = phi i64 [ 0, %.preheader46.us.us.us ], [ %71, %67 ]
  %68 = getelementptr inbounds i8, ptr %.03151.us.us.us, i64 %.03649.us.us.us
  %69 = load i8, ptr %68, align 1
  %70 = getelementptr inbounds i8, ptr %.052.us.us.us, i64 %.03649.us.us.us
  store i8 %69, ptr %70, align 1
  %71 = add nuw i64 %.03649.us.us.us, 1
  %exitcond.not = icmp eq i64 %71, %.fr62
  br i1 %exitcond.not, label %._crit_edge.us.us.us, label %67, !llvm.loop !203

._crit_edge.us.us.us:                             ; preds = %67
  %72 = add nuw i64 %.03750.us.us.us, 1
  %73 = getelementptr inbounds i8, ptr %.03151.us.us.us, i64 %47
  %74 = getelementptr inbounds i8, ptr %.052.us.us.us, i64 %.fr62
  %exitcond66.not = icmp eq i64 %72, %59
  br i1 %exitcond66.not, label %._crit_edge53.split.us.us.us, label %.preheader46.us.us.us, !llvm.loop !204

._crit_edge53.split.us.us.us:                     ; preds = %._crit_edge.us.us.us
  %75 = add i64 %.035.us.us, 1
  %76 = invoke noundef nonnull align 8 dereferenceable(64) ptr @_ZN2cv15NAryMatIteratorppEv(ptr noundef nonnull align 8 dereferenceable(64) %8)
          to label %.preheader47.split.us.split.us unwind label %.loopexit48.split.us.split.us, !llvm.loop !205

.loopexit48.split.us.split.us:                    ; preds = %._crit_edge53.split.us.us.us
  %lpad.loopexit.us.us = landingpad { ptr, i32 }
          cleanup
  br label %.loopexit48

.preheader47.split.us.split:                      ; preds = %.preheader47.split.us, %.preheader46.lr.ph.us
  %.035.us = phi i64 [ %77, %.preheader46.lr.ph.us ], [ 0, %.preheader47.split.us ]
  %exitcond68.not = icmp eq i64 %.035.us, %37
  br i1 %exitcond68.not, label %.preheader.preheader, label %.preheader46.lr.ph.us

.preheader46.lr.ph.us:                            ; preds = %.preheader47.split.us.split
  %77 = add i64 %.035.us, 1
  %78 = invoke noundef nonnull align 8 dereferenceable(64) ptr @_ZN2cv15NAryMatIteratorppEv(ptr noundef nonnull align 8 dereferenceable(64) %8)
          to label %.preheader47.split.us.split unwind label %.loopexit48.split.us.split, !llvm.loop !205

.loopexit48.split.us.split:                       ; preds = %.preheader46.lr.ph.us
  %lpad.loopexit.us = landingpad { ptr, i32 }
          cleanup
  br label %.loopexit48

.preheader47.split:                               ; preds = %.preheader47, %79
  %.035 = phi i64 [ %80, %79 ], [ 0, %.preheader47 ]
  %exitcond69.not = icmp eq i64 %.035, %37
  br i1 %exitcond69.not, label %.preheader.preheader, label %79

.preheader.preheader:                             ; preds = %.preheader47.split.us.split.us, %.preheader47.split.us.split, %.preheader47.split
  br label %.preheader

79:                                               ; preds = %.preheader47.split
  %80 = add i64 %.035, 1
  %81 = invoke noundef nonnull align 8 dereferenceable(64) ptr @_ZN2cv15NAryMatIteratorppEv(ptr noundef nonnull align 8 dereferenceable(64) %8)
          to label %.preheader47.split unwind label %.loopexit48.split, !llvm.loop !205

.loopexit48.split:                                ; preds = %79
  %lpad.loopexit = landingpad { ptr, i32 }
          cleanup
  br label %.loopexit48

.loopexit.split-lp:                               ; preds = %33, %_ZNK2cv3Mat8elemSizeEv.exit45
  %lpad.loopexit.split-lp = landingpad { ptr, i32 }
          cleanup
  br label %.loopexit48

.loopexit48:                                      ; preds = %.loopexit48.split, %.loopexit48.split.us.split.us, %.loopexit48.split.us.split, %.loopexit.split-lp
  %lpad.phi = phi { ptr, i32 } [ %lpad.loopexit.split-lp, %.loopexit.split-lp ], [ %lpad.loopexit, %.loopexit48.split ], [ %lpad.loopexit.us, %.loopexit48.split.us.split ], [ %lpad.loopexit.us.us, %.loopexit48.split.us.split.us ]
  br label %86

.preheader:                                       ; preds = %.preheader.preheader, %.preheader
  %82 = phi ptr [ %83, %.preheader ], [ %34, %.preheader.preheader ]
  %83 = getelementptr inbounds i8, ptr %82, i64 -96
  call void @_ZN2cv3MatD1Ev(ptr noundef nonnull align 8 dereferenceable(96) %83) #28
  %84 = icmp eq ptr %83, %7
  br i1 %84, label %85, label %.preheader

85:                                               ; preds = %.preheader
  ret void

86:                                               ; preds = %86, %.loopexit48
  %87 = phi ptr [ %34, %.loopexit48 ], [ %88, %86 ]
  %88 = getelementptr inbounds i8, ptr %87, i64 -96
  call void @_ZN2cv3MatD1Ev(ptr noundef nonnull align 8 dereferenceable(96) %88) #28
  %89 = icmp eq ptr %88, %7
  br i1 %89, label %.loopexit, label %86

.loopexit:                                        ; preds = %86, %27
  %.pn43 = phi { ptr, i32 } [ %.pn, %27 ], [ %lpad.phi, %86 ]
  resume { ptr, i32 } %.pn43
}